target datalayout = "e-m:e-p270:32:32-p271:32:32-p272:64:64-i64:64-i128:128-f80:128-n8:16:32:64-S128"
target triple = "x86_64-pc-linux-gnu"

%struct.sockaddr = type { i16, [14 x i8] }

@hostname_tsd_key = internal global i32 0, align 4
@.str.8 = private unnamed_addr constant [36 x i8] c"pmix_sockaddr2str: malloc() failed\0A\00", align 1
@.str.9 = private unnamed_addr constant [46 x i8] c"pmix_sockaddr2str failed:%s (return code %i)\0A\00", align 1

; Function Attrs: inlinehint nounwind uwtable
define internal i32 @pmix_tsd_setspecific(i32 noundef %0, ptr noundef %1) #6 {
  %3 = alloca i32, align 4
  %4 = alloca ptr, align 8
  store i32 %0, ptr %3, align 4, !tbaa !15
  store ptr %1, ptr %4, align 8, !tbaa !25
  %5 = load i32, ptr %3, align 4, !tbaa !15
  %6 = load ptr, ptr %4, align 8, !tbaa !25
  %7 = call i32 @pthread_setspecific(i32 noundef %5, ptr noundef %6) #10
  ret i32 %7
}

; Function Attrs: inlinehint nounwind uwtable
define internal i32 @pmix_tsd_getspecific(i32 noundef %0, ptr noundef %1) #6 {
  %3 = alloca i32, align 4
  %4 = alloca ptr, align 8
  store i32 %0, ptr %3, align 4, !tbaa !15
  store ptr %1, ptr %4, align 8, !tbaa !25
  %5 = load i32, ptr %3, align 4, !tbaa !15
  %6 = call ptr @pthread_getspecific(i32 noundef %5) #10
  %7 = load ptr, ptr %4, align 8, !tbaa !25
  store ptr %6, ptr %7, align 8, !tbaa !25
  ret i32 0
}

; Function Attrs: nounwind uwtable
define internal ptr @get_hostname_buffer() #0 {
  %1 = alloca ptr, align 8
  %2 = alloca ptr, align 8
  %3 = alloca i32, align 4
  %4 = alloca i32, align 4
  call void @llvm.lifetime.start.p0(i64 8, ptr %2) #10
  call void @llvm.lifetime.start.p0(i64 4, ptr %3) #10
  %5 = load i32, ptr @hostname_tsd_key, align 4, !tbaa !15
  %6 = call i32 @pmix_tsd_getspecific(i32 noundef %5, ptr noundef %2)
  store i32 %6, ptr %3, align 4, !tbaa !15
  %7 = load i32, ptr %3, align 4, !tbaa !15
  %8 = icmp ne i32 0, %7
  br i1 %8, label %9, label %10

9:                                                ; preds = %0
  store ptr null, ptr %1, align 8
  store i32 1, ptr %4, align 4
  br label %20

10:                                               ; preds = %0
  %11 = load ptr, ptr %2, align 8, !tbaa !25
  %12 = icmp eq ptr null, %11
  br i1 %12, label %13, label %18

13:                                               ; preds = %10
  %14 = call noalias ptr @malloc(i64 noundef 1026) #11
  store ptr %14, ptr %2, align 8, !tbaa !25
  %15 = load i32, ptr @hostname_tsd_key, align 4, !tbaa !15
  %16 = load ptr, ptr %2, align 8, !tbaa !25
  %17 = call i32 @pmix_tsd_setspecific(i32 noundef %15, ptr noundef %16)
  store i32 %17, ptr %3, align 4, !tbaa !15
  br label %18

18:                                               ; preds = %13, %10
  %19 = load ptr, ptr %2, align 8, !tbaa !25
  store ptr %19, ptr %1, align 8
  store i32 1, ptr %4, align 4
  br label %20

20:                                               ; preds = %18, %9
  call void @llvm.lifetime.end.p0(i64 4, ptr %3) #10
  call void @llvm.lifetime.end.p0(i64 8, ptr %2) #10
  %21 = load ptr, ptr %1, align 8
  ret ptr %21
}

; Function Attrs: nounwind uwtable
define ptr @pmix_net_get_hostname(ptr noundef %0) #0 {
  %2 = alloca ptr, align 8
  %3 = alloca ptr, align 8
  %4 = alloca ptr, align 8
  %5 = alloca i32, align 4
  %6 = alloca i32, align 4
  %7 = alloca ptr, align 8
  %8 = alloca i32, align 4
  %9 = alloca i32, align 4
  store ptr %0, ptr %3, align 8, !tbaa !26
  call void @llvm.lifetime.start.p0(i64 8, ptr %4) #10
  %10 = call ptr @get_hostname_buffer()
  store ptr %10, ptr %4, align 8, !tbaa !3
  call void @llvm.lifetime.start.p0(i64 4, ptr %5) #10
  call void @llvm.lifetime.start.p0(i64 4, ptr %6) #10
  call void @llvm.lifetime.start.p0(i64 8, ptr %7) #10
  %11 = load ptr, ptr %4, align 8, !tbaa !3
  %12 = icmp eq ptr null, %11
  br i1 %12, label %13, label %14

13:                                               ; preds = %1
  call void (i32, ptr, ...) @pmix_output(i32 noundef 0, ptr noundef @.str.8)
  store ptr null, ptr %2, align 8
  store i32 1, ptr %8, align 4
  br label %46

14:                                               ; preds = %1
  %15 = load ptr, ptr %4, align 8, !tbaa !3
  call void @llvm.memset.p0.i64(ptr align 1 %15, i8 0, i64 1, i1 false)
  %16 = load ptr, ptr %3, align 8, !tbaa !26
  %17 = getelementptr inbounds nuw %struct.sockaddr, ptr %16, i32 0, i32 0
  %18 = load i16, ptr %17, align 2, !tbaa !27
  %19 = zext i16 %18 to i32
  switch i32 %19, label %22 [
    i32 2, label %20
    i32 10, label %21
  ]

20:                                               ; preds = %14
  store i32 16, ptr %6, align 4, !tbaa !15
  br label %24

21:                                               ; preds = %14
  store i32 28, ptr %6, align 4, !tbaa !15
  br label %24

22:                                               ; preds = %14
  %23 = load ptr, ptr %4, align 8, !tbaa !3
  call void @free(ptr noundef %23) #10
  store ptr null, ptr %2, align 8
  store i32 1, ptr %8, align 4
  br label %46

24:                                               ; preds = %21, %20
  %25 = load ptr, ptr %3, align 8, !tbaa !26
  %26 = load i32, ptr %6, align 4, !tbaa !15
  %27 = load ptr, ptr %4, align 8, !tbaa !3
  %28 = call i32 @getnameinfo(ptr noundef %25, i32 noundef %26, ptr noundef %27, i32 noundef 1025, ptr noundef null, i32 noundef 0, i32 noundef 1)
  store i32 %28, ptr %5, align 4, !tbaa !15
  %29 = load i32, ptr %5, align 4, !tbaa !15
  %30 = icmp ne i32 %29, 0
  br i1 %30, label %31, label %38

31:                                               ; preds = %24
  call void @llvm.lifetime.start.p0(i64 4, ptr %9) #10
  %32 = call ptr @__errno_location() #12
  %33 = load i32, ptr %32, align 4, !tbaa !15
  store i32 %33, ptr %9, align 4, !tbaa !15
  %34 = load i32, ptr %9, align 4, !tbaa !15
  %35 = call ptr @gai_strerror(i32 noundef %34) #10
  %36 = load i32, ptr %5, align 4, !tbaa !15
  call void (i32, ptr, ...) @pmix_output(i32 noundef 0, ptr noundef @.str.9, ptr noundef %35, i32 noundef %36)
  %37 = load ptr, ptr %4, align 8, !tbaa !3
  call void @free(ptr noundef %37) #10
  store ptr null, ptr %2, align 8
  store i32 1, ptr %8, align 4
  call void @llvm.lifetime.end.p0(i64 4, ptr %9) #10
  br label %46

38:                                               ; preds = %24
  %39 = load ptr, ptr %4, align 8, !tbaa !3
  %40 = call ptr @strrchr(ptr noundef %39, i32 noundef 37) #13
  store ptr %40, ptr %7, align 8, !tbaa !3
  %41 = icmp ne ptr null, %40
  br i1 %41, label %42, label %44

42:                                               ; preds = %38
  %43 = load ptr, ptr %7, align 8, !tbaa !3
  store i8 0, ptr %43, align 1, !tbaa !39
  br label %44

44:                                               ; preds = %42, %38
  %45 = load ptr, ptr %4, align 8, !tbaa !3
  store ptr %45, ptr %2, align 8
  store i32 1, ptr %8, align 4
  br label %46

46:                                               ; preds = %44, %31, %22, %13
  call void @llvm.lifetime.end.p0(i64 8, ptr %7) #10
  call void @llvm.lifetime.end.p0(i64 4, ptr %6) #10
  call void @llvm.lifetime.end.p0(i64 4, ptr %5) #10
  call void @llvm.lifetime.end.p0(i64 8, ptr %4) #10
  %47 = load ptr, ptr %2, align 8
  ret ptr %47
}