; Function Attrs: nounwind uwtable
define noundef ptr @pmix_net_get_hostname(ptr noundef %0) local_unnamed_addr #0 {
  %2 = load i32, ptr @hostname_tsd_key, align 4, !tbaa !16
  %3 = tail call ptr @pthread_getspecific(i32 noundef %2) #15
  %4 = icmp eq ptr %3, null
  br i1 %4, label %get_hostname_buffer.exit, label %get_hostname_buffer.exit.thread

get_hostname_buffer.exit:                         ; preds = %1
  %5 = tail call noalias dereferenceable_or_null(1026) ptr @malloc(i64 noundef 1026) #16
  %6 = load i32, ptr @hostname_tsd_key, align 4, !tbaa !16
  %7 = tail call i32 @pthread_setspecific(i32 noundef %6, ptr noundef %5) #15
  %8 = icmp eq ptr %5, null
  br i1 %8, label %9, label %get_hostname_buffer.exit.thread

9:                                                ; preds = %get_hostname_buffer.exit
  tail call void (i32, ptr, ...) @pmix_output(i32 noundef 0, ptr noundef nonnull @.str.8) #15
  br label %22

get_hostname_buffer.exit.thread:                  ; preds = %1, %get_hostname_buffer.exit
  %.0.i20 = phi ptr [ %5, %get_hostname_buffer.exit ], [ %3, %1 ]
  store i8 0, ptr %.0.i20, align 1
  %10 = load i16, ptr %0, align 2, !tbaa !22
  switch i16 %10, label %12 [
    i16 2, label %13
    i16 10, label %11
  ]

11:                                               ; preds = %get_hostname_buffer.exit.thread
  br label %13

12:                                               ; preds = %get_hostname_buffer.exit.thread
  tail call void @free(ptr noundef nonnull %.0.i20) #15
  br label %22

13:                                               ; preds = %get_hostname_buffer.exit.thread, %11
  %.014 = phi i32 [ 28, %11 ], [ 16, %get_hostname_buffer.exit.thread ]
  %14 = tail call i32 @getnameinfo(ptr noundef nonnull %0, i32 noundef %.014, ptr noundef nonnull %.0.i20, i32 noundef 1025, ptr noundef null, i32 noundef 0, i32 noundef 1) #15
  %.not = icmp eq i32 %14, 0
  br i1 %.not, label %19, label %15

15:                                               ; preds = %13
  %16 = tail call ptr @__errno_location() #17
  %17 = load i32, ptr %16, align 4, !tbaa !16
  %18 = tail call ptr @gai_strerror(i32 noundef %17) #15
  tail call void (i32, ptr, ...) @pmix_output(i32 noundef 0, ptr noundef nonnull @.str.9, ptr noundef %18, i32 noundef %14) #15
  tail call void @free(ptr noundef nonnull %.0.i20) #15
  br label %22

19:                                               ; preds = %13
  %20 = tail call ptr @strrchr(ptr noundef nonnull dereferenceable(1) %.0.i20, i32 noundef 37) #18
  %.not18 = icmp eq ptr %20, null
  br i1 %.not18, label %22, label %21

21:                                               ; preds = %19
  store i8 0, ptr %20, align 1, !tbaa !28
  br label %22

22:                                               ; preds = %19, %21, %15, %12, %9
  %.0 = phi ptr [ null, %9 ], [ null, %12 ], [ null, %15 ], [ %.0.i20, %21 ], [ %.0.i20, %19 ]
  ret ptr %.0
}